; Function Attrs: cold nounwind optsize uwtable
define internal noundef i32 @decode_close(ptr noundef readonly captures(none) %0) #0 {
  %2 = getelementptr inbounds nuw i8, ptr %0, i64 32
  %3 = load ptr, ptr %2, align 8, !tbaa !4
  %4 = getelementptr inbounds nuw i8, ptr %3, i64 56
  tail call void @av_freep(ptr noundef nonnull %4) #8
  %5 = getelementptr inbounds nuw i8, ptr %3, i64 64
  store i32 0, ptr %5, align 8, !tbaa !94
  %6 = getelementptr inbounds nuw i8, ptr %3, i64 40
  tail call void @av_freep(ptr noundef nonnull %6) #8
  %7 = getelementptr inbounds nuw i8, ptr %3, i64 48
  store i32 0, ptr %7, align 8, !tbaa !95
  %8 = getelementptr inbounds nuw i8, ptr %3, i64 104
  tail call void @av_frame_free(ptr noundef nonnull %8) #8
  %9 = getelementptr inbounds nuw i8, ptr %3, i64 112
  tail call void @av_frame_free(ptr noundef nonnull %9) #8
  %10 = getelementptr inbounds nuw i8, ptr %3, i64 120
  tail call void @ff_inflate_end(ptr noundef nonnull %10) #8
  ret i32 0
}